target datalayout = "e-m:e-p270:32:32-p271:32:32-p272:64:64-i64:64-i128:128-f80:128-n8:16:32:64-S128"
target triple = "x86_64-pc-linux-gnu"

%"class.draco::DecoderBuffer" = type <{ ptr, i64, i64, %"class.draco::DecoderBuffer::BitDecoder", i8, i8, i16, [4 x i8] }>
%"class.draco::DecoderBuffer::BitDecoder" = type { ptr, ptr, i64 }

; Function Attrs: mustprogress nounwind uwtable
define linkonce_odr noundef zeroext i1 @_ZN5draco13DecoderBuffer4PeekIhEEbPT_(ptr noundef nonnull align 8 dereferenceable(52) %0, ptr noundef %1) #5 comdat align 2 {
  %3 = alloca i1, align 1
  %4 = alloca ptr, align 8
  %5 = alloca ptr, align 8
  %6 = alloca i64, align 8
  store ptr %0, ptr %4, align 8
  store ptr %1, ptr %5, align 8
  %7 = load ptr, ptr %4, align 8
  store i64 1, ptr %6, align 8
  %8 = getelementptr inbounds %"class.draco::DecoderBuffer", ptr %7, i32 0, i32 1
  %9 = load i64, ptr %8, align 8
  %10 = getelementptr inbounds %"class.draco::DecoderBuffer", ptr %7, i32 0, i32 2
  %11 = load i64, ptr %10, align 8
  %12 = add i64 %11, 1
  %13 = icmp slt i64 %9, %12
  br i1 %13, label %14, label %15

14:                                               ; preds = %2
  store i1 false, ptr %3, align 1
  br label %22

15:                                               ; preds = %2
  %16 = load ptr, ptr %5, align 8
  %17 = getelementptr inbounds %"class.draco::DecoderBuffer", ptr %7, i32 0, i32 0
  %18 = load ptr, ptr %17, align 8
  %19 = getelementptr inbounds %"class.draco::DecoderBuffer", ptr %7, i32 0, i32 2
  %20 = load i64, ptr %19, align 8
  %21 = getelementptr inbounds i8, ptr %18, i64 %20
  call void @llvm.memcpy.p0.p0.i64(ptr align 1 %16, ptr align 1 %21, i64 1, i1 false)
  store i1 true, ptr %3, align 1
  br label %22

22:                                               ; preds = %15, %14
  %23 = load i1, ptr %3, align 1
  ret i1 %23
}

; Function Attrs: mustprogress uwtable
define linkonce_odr noundef zeroext i1 @_ZN5draco13DecoderBuffer6DecodeIhEEbPT_(ptr noundef nonnull align 8 dereferenceable(52) %0, ptr noundef %1) #4 comdat align 2 {
  %3 = alloca i1, align 1
  %4 = alloca ptr, align 8
  %5 = alloca ptr, align 8
  store ptr %0, ptr %4, align 8
  store ptr %1, ptr %5, align 8
  %6 = load ptr, ptr %4, align 8
  %7 = load ptr, ptr %5, align 8
  %8 = call noundef zeroext i1 @_ZN5draco13DecoderBuffer4PeekIhEEbPT_(ptr noundef nonnull align 8 dereferenceable(52) %6, ptr noundef %7)
  br i1 %8, label %10, label %9

9:                                                ; preds = %2
  store i1 false, ptr %3, align 1
  br label %14

10:                                               ; preds = %2
  %11 = getelementptr inbounds %"class.draco::DecoderBuffer", ptr %6, i32 0, i32 2
  %12 = load i64, ptr %11, align 8
  %13 = add i64 %12, 1
  store i64 %13, ptr %11, align 8
  store i1 true, ptr %3, align 1
  br label %14

14:                                               ; preds = %10, %9
  %15 = load i1, ptr %3, align 1
  ret i1 %15
}

; Function Attrs: mustprogress uwtable
define internal noundef zeroext i1 @_ZN5draco12_GLOBAL__N_120DecodeVarintUnsignedIjEEbiPT_PNS_13DecoderBufferE(i32 noundef %0, ptr noundef %1, ptr noundef %2) #4 {
  %4 = alloca i1, align 1
  %5 = alloca i32, align 4
  %6 = alloca ptr, align 8
  %7 = alloca ptr, align 8
  %8 = alloca i32, align 4
  %9 = alloca i8, align 1
  store i32 %0, ptr %5, align 4
  store ptr %1, ptr %6, align 8
  store ptr %2, ptr %7, align 8
  store i32 5, ptr %8, align 4
  %10 = load i32, ptr %5, align 4
  %11 = icmp ugt i32 %10, 5
  br i1 %11, label %12, label %13

12:                                               ; preds = %3
  store i1 false, ptr %4, align 1
  br label %44

13:                                               ; preds = %3
  %14 = load ptr, ptr %7, align 8
  %15 = call noundef zeroext i1 @_ZN5draco13DecoderBuffer6DecodeIhEEbPT_(ptr noundef nonnull align 8 dereferenceable(52) %14, ptr noundef %9)
  br i1 %15, label %17, label %16

16:                                               ; preds = %13
  store i1 false, ptr %4, align 1
  br label %44

17:                                               ; preds = %13
  %18 = load i8, ptr %9, align 1
  %19 = zext i8 %18 to i32
  %20 = and i32 %19, 128
  %21 = icmp ne i32 %20, 0
  br i1 %21, label %22, label %39

22:                                               ; preds = %17
  %23 = load i32, ptr %5, align 4
  %24 = add nsw i32 %23, 1
  %25 = load ptr, ptr %6, align 8
  %26 = load ptr, ptr %7, align 8
  %27 = call noundef zeroext i1 @_ZN5draco12_GLOBAL__N_120DecodeVarintUnsignedIjEEbiPT_PNS_13DecoderBufferE(i32 noundef %24, ptr noundef %25, ptr noundef %26)
  br i1 %27, label %29, label %28

28:                                               ; preds = %22
  store i1 false, ptr %4, align 1
  br label %44

29:                                               ; preds = %22
  %30 = load ptr, ptr %6, align 8
  %31 = load i32, ptr %30, align 4
  %32 = shl i32 %31, 7
  store i32 %32, ptr %30, align 4
  %33 = load i8, ptr %9, align 1
  %34 = zext i8 %33 to i32
  %35 = and i32 %34, 127
  %36 = load ptr, ptr %6, align 8
  %37 = load i32, ptr %36, align 4
  %38 = or i32 %37, %35
  store i32 %38, ptr %36, align 4
  br label %43

39:                                               ; preds = %17
  %40 = load i8, ptr %9, align 1
  %41 = zext i8 %40 to i32
  %42 = load ptr, ptr %6, align 8
  store i32 %41, ptr %42, align 4
  br label %43

43:                                               ; preds = %39, %29
  store i1 true, ptr %4, align 1
  br label %44

44:                                               ; preds = %43, %28, %16, %12
  %45 = load i1, ptr %4, align 1
  ret i1 %45
}